	.text
	.file	"gemm.pluto.i64.c"
	.section	.rodata.cst8,"aM",@progbits,8
	.p2align	3                               # -- Begin function main
.LCPI0_0:
	.quad	0x409f400000000000              # double 2000
.LCPI0_1:
	.quad	0x40a4500000000000              # double 2600
.LCPI0_2:
	.quad	0x40a1f80000000000              # double 2300
.LCPI0_3:
	.quad	0x3ff3333333333333              # double 1.2
.LCPI0_4:
	.quad	0x3ff8000000000000              # double 1.5
	.text
	.globl	main
	.p2align	4, 0x90
	.type	main,@function
main:                                   # @main
	.cfi_startproc
# %bb.0:                                # %entry
	pushq	%rbp
	.cfi_def_cfa_offset 16
	pushq	%r15
	.cfi_def_cfa_offset 24
	pushq	%r14
	.cfi_def_cfa_offset 32
	pushq	%r13
	.cfi_def_cfa_offset 40
	pushq	%r12
	.cfi_def_cfa_offset 48
	pushq	%rbx
	.cfi_def_cfa_offset 56
	subq	$88, %rsp
	.cfi_def_cfa_offset 144
	.cfi_offset %rbx, -56
	.cfi_offset %r12, -48
	.cfi_offset %r13, -40
	.cfi_offset %r14, -32
	.cfi_offset %r15, -24
	.cfi_offset %rbp, -16
	movq	%rsi, 64(%rsp)                  # 8-byte Spill
	movl	%edi, 36(%rsp)                  # 4-byte Spill
	movl	$36800000, %edi                 # imm = 0x2318600
	callq	malloc
	movq	%rax, %rbp
	movl	$41600000, %edi                 # imm = 0x27AC400
	callq	malloc
	movq	%rax, %rbx
	movl	$47840000, %edi                 # imm = 0x2D9FB00
	callq	malloc
	movq	%rax, 16(%rsp)                  # 8-byte Spill
	xorl	%eax, %eax
	movsd	.LCPI0_0(%rip), %xmm0           # xmm0 = mem[0],zero
	movq	%rbp, 8(%rsp)                   # 8-byte Spill
	movq	%rbp, %rcx
	.p2align	4, 0x90
.LBB0_1:                                # %for.cond1.preheader.i
                                        # =>This Loop Header: Depth=1
                                        #     Child Loop BB0_2 Depth 2
	movl	$1, %ebp
	xorl	%esi, %esi
	.p2align	4, 0x90
.LBB0_2:                                # %for.body3.i
                                        #   Parent Loop BB0_1 Depth=1
                                        # =>  This Inner Loop Header: Depth=2
	movl	%ebp, %edi
	imulq	$274877907, %rdi, %rdi          # imm = 0x10624DD3
	shrq	$39, %rdi
	imull	$2000, %edi, %edi               # imm = 0x7D0
	movl	%ebp, %edx
	subl	%edi, %edx
	xorps	%xmm1, %xmm1
	cvtsi2sd	%edx, %xmm1
	divsd	%xmm0, %xmm1
	movsd	%xmm1, (%rcx,%rsi,8)
	addq	$1, %rsi
	addl	%eax, %ebp
	cmpq	$2300, %rsi                     # imm = 0x8FC
	jne	.LBB0_2
# %bb.3:                                # %for.inc7.i
                                        #   in Loop: Header=BB0_1 Depth=1
	addq	$1, %rax
	addq	$18400, %rcx                    # imm = 0x47E0
	cmpq	$2000, %rax                     # imm = 0x7D0
	jne	.LBB0_1
# %bb.4:                                # %for.cond14.preheader.i.preheader
	xorl	%eax, %eax
	movl	$3383112701, %r8d               # imm = 0xC9A633FD
	movsd	.LCPI0_1(%rip), %xmm0           # xmm0 = mem[0],zero
	movq	%rbx, %rdx
	.p2align	4, 0x90
.LBB0_5:                                # %for.cond14.preheader.i
                                        # =>This Loop Header: Depth=1
                                        #     Child Loop BB0_6 Depth 2
	movl	%eax, %ecx
	xorl	%edi, %edi
	.p2align	4, 0x90
.LBB0_6:                                # %for.body17.i
                                        #   Parent Loop BB0_5 Depth=1
                                        # =>  This Inner Loop Header: Depth=2
	movl	%ecx, %ebp
	imulq	%r8, %rbp
	shrq	$43, %rbp
	imull	$2600, %ebp, %ebp               # imm = 0xA28
	movl	%ecx, %esi
	subl	%ebp, %esi
	xorps	%xmm1, %xmm1
	cvtsi2sd	%esi, %xmm1
	divsd	%xmm0, %xmm1
	movsd	%xmm1, (%rdx,%rdi,8)
	addq	$1, %rdi
	addl	%eax, %ecx
	cmpq	$2600, %rdi                     # imm = 0xA28
	jne	.LBB0_6
# %bb.7:                                # %for.inc31.i
                                        #   in Loop: Header=BB0_5 Depth=1
	addq	$1, %rax
	addq	$20800, %rdx                    # imm = 0x5140
	cmpq	$2000, %rax                     # imm = 0x7D0
	jne	.LBB0_5
# %bb.8:                                # %for.cond38.preheader.i.preheader
	xorl	%r8d, %r8d
	movl	$3824388271, %r9d               # imm = 0xE3F388AF
	movsd	.LCPI0_2(%rip), %xmm0           # xmm0 = mem[0],zero
	movq	16(%rsp), %rdx                  # 8-byte Reload
	xorl	%esi, %esi
	.p2align	4, 0x90
.LBB0_9:                                # %for.cond38.preheader.i
                                        # =>This Loop Header: Depth=1
                                        #     Child Loop BB0_10 Depth 2
	movl	%r8d, %ecx
	xorl	%ebp, %ebp
	.p2align	4, 0x90
.LBB0_10:                               # %for.body41.i
                                        #   Parent Loop BB0_9 Depth=1
                                        # =>  This Inner Loop Header: Depth=2
	movl	%ecx, %eax
	imulq	%r9, %rax
	shrq	$43, %rax
	imull	$2300, %eax, %eax               # imm = 0x8FC
	movl	%ecx, %edi
	subl	%eax, %edi
	xorps	%xmm1, %xmm1
	cvtsi2sd	%edi, %xmm1
	divsd	%xmm0, %xmm1
	movsd	%xmm1, (%rdx,%rbp,8)
	addq	$1, %rbp
	addl	%esi, %ecx
	cmpq	$2300, %rbp                     # imm = 0x8FC
	jne	.LBB0_10
# %bb.11:                               # %for.inc55.i
                                        #   in Loop: Header=BB0_9 Depth=1
	addq	$1, %rsi
	addq	$18400, %rdx                    # imm = 0x47E0
	addl	$2, %r8d
	cmpq	$2600, %rsi                     # imm = 0xA28
	jne	.LBB0_9
# %bb.12:                               # %init_array.exit
	xorl	%r14d, %r14d
	xorl	%eax, %eax
	callq	polybench_timer_start
	movl	$31, %r10d
	movl	$2299, %r11d                    # imm = 0x8FB
	movsd	.LCPI0_3(%rip), %xmm0           # xmm0 = mem[0],zero
	movq	8(%rsp), %rax                   # 8-byte Reload
	movq	%rax, (%rsp)                    # 8-byte Spill
	jmp	.LBB0_13
	.p2align	4, 0x90
.LBB0_21:                               # %for.inc76.i
                                        #   in Loop: Header=BB0_13 Depth=1
	addq	$1, %r14
	addq	$32, %r10
	addq	$588800, (%rsp)                 # 8-byte Folded Spill
                                        # imm = 0x8FC00
	cmpq	$63, %r14
	je	.LBB0_22
.LBB0_13:                               # %for.cond11.preheader.i
                                        # =>This Loop Header: Depth=1
                                        #     Child Loop BB0_15 Depth 2
                                        #       Child Loop BB0_17 Depth 3
                                        #         Child Loop BB0_18 Depth 4
	cmpq	$1999, %r10                     # imm = 0x7CF
	movl	$1999, %edi                     # imm = 0x7CF
	cmovbq	%r10, %rdi
	movq	%r14, %r15
	shlq	$5, %r15
	leaq	31(%r15), %rax
	cmpq	$1999, %rax                     # imm = 0x7CF
	movl	$1999, %ecx                     # imm = 0x7CF
	cmovaeq	%rcx, %rax
	cmpq	%rax, %r15
	ja	.LBB0_21
# %bb.14:                               # %for.body30.i.preheader
                                        #   in Loop: Header=BB0_13 Depth=1
	movl	$31, %r9d
	movl	$1, %r12d
	movq	(%rsp), %r13                    # 8-byte Reload
	xorl	%edx, %edx
	jmp	.LBB0_15
	.p2align	4, 0x90
.LBB0_20:                               # %for.inc73.i
                                        #   in Loop: Header=BB0_15 Depth=2
	addq	$1, %rdx
	addq	$32, %r9
	addq	$-32, %r12
	addq	$256, %r13                      # imm = 0x100
	cmpq	$72, %rdx
	je	.LBB0_21
.LBB0_15:                               # %for.body30.i
                                        #   Parent Loop BB0_13 Depth=1
                                        # =>  This Loop Header: Depth=2
                                        #       Child Loop BB0_17 Depth 3
                                        #         Child Loop BB0_18 Depth 4
	cmpq	$2299, %r9                      # imm = 0x8FB
	movl	$2299, %ebp                     # imm = 0x8FB
	cmovbq	%r9, %rbp
	movq	%rdx, %rax
	shlq	$5, %rax
	leaq	31(%rax), %rsi
	cmpq	$2299, %rsi                     # imm = 0x8FB
	cmovaeq	%r11, %rsi
	cmpq	%rsi, %rax
	ja	.LBB0_20
# %bb.16:                               # %for.body48.i.preheader
                                        #   in Loop: Header=BB0_15 Depth=2
	addq	%r12, %rbp
	movq	%r13, %rax
	movq	%r15, %rsi
	.p2align	4, 0x90
.LBB0_17:                               # %for.body48.i
                                        #   Parent Loop BB0_13 Depth=1
                                        #     Parent Loop BB0_15 Depth=2
                                        # =>    This Loop Header: Depth=3
                                        #         Child Loop BB0_18 Depth 4
	xorl	%r8d, %r8d
	.p2align	4, 0x90
.LBB0_18:                               # %for.body67.i
                                        #   Parent Loop BB0_13 Depth=1
                                        #     Parent Loop BB0_15 Depth=2
                                        #       Parent Loop BB0_17 Depth=3
                                        # =>      This Inner Loop Header: Depth=4
	movsd	(%rax,%r8,8), %xmm1             # xmm1 = mem[0],zero
	mulsd	%xmm0, %xmm1
	movsd	%xmm1, (%rax,%r8,8)
	addq	$1, %r8
	cmpq	%r8, %rbp
	jne	.LBB0_18
# %bb.19:                               # %for.inc70.i
                                        #   in Loop: Header=BB0_17 Depth=3
	leaq	1(%rsi), %rcx
	addq	$18400, %rax                    # imm = 0x47E0
	cmpq	%rdi, %rsi
	movq	%rcx, %rsi
	jne	.LBB0_17
	jmp	.LBB0_20
.LBB0_22:                               # %for.cond102.preheader.i.preheader
	movl	$31, %eax
	xorl	%ecx, %ecx
	movsd	.LCPI0_4(%rip), %xmm0           # xmm0 = mem[0],zero
	movq	8(%rsp), %rdx                   # 8-byte Reload
	movq	%rdx, 40(%rsp)                  # 8-byte Spill
	jmp	.LBB0_23
	.p2align	4, 0x90
.LBB0_36:                               # %for.inc223.i
                                        #   in Loop: Header=BB0_23 Depth=1
	movq	72(%rsp), %rcx                  # 8-byte Reload
	addq	$1, %rcx
	movq	80(%rsp), %rax                  # 8-byte Reload
	addq	$32, %rax
	addq	$588800, 40(%rsp)               # 8-byte Folded Spill
                                        # imm = 0x8FC00
	cmpq	$63, %rcx
	je	.LBB0_37
.LBB0_23:                               # %for.cond102.preheader.i
                                        # =>This Loop Header: Depth=1
                                        #     Child Loop BB0_25 Depth 2
                                        #       Child Loop BB0_27 Depth 3
                                        #         Child Loop BB0_29 Depth 4
                                        #           Child Loop BB0_30 Depth 5
                                        #             Child Loop BB0_31 Depth 6
	cmpq	$1999, %rax                     # imm = 0x7CF
	movl	$1999, %edx                     # imm = 0x7CF
	movq	%rax, 80(%rsp)                  # 8-byte Spill
	cmovbq	%rax, %rdx
	movq	%rcx, 72(%rsp)                  # 8-byte Spill
	movq	%rcx, %rsi
	shlq	$5, %rsi
	leaq	31(%rsi), %rax
	cmpq	$1999, %rax                     # imm = 0x7CF
	movl	$1999, %ecx                     # imm = 0x7CF
	cmovaeq	%rcx, %rax
	movq	%rsi, (%rsp)                    # 8-byte Spill
	cmpq	%rax, %rsi
	ja	.LBB0_36
# %bb.24:                               # %for.cond122.preheader.i.preheader
                                        #   in Loop: Header=BB0_23 Depth=1
	movl	$31, %eax
	movl	$1, %ecx
	movq	%rcx, 56(%rsp)                  # 8-byte Spill
	movq	16(%rsp), %rcx                  # 8-byte Reload
	movq	%rcx, 48(%rsp)                  # 8-byte Spill
	movq	40(%rsp), %rdi                  # 8-byte Reload
	xorl	%r13d, %r13d
	jmp	.LBB0_25
	.p2align	4, 0x90
.LBB0_35:                               # %for.inc220.i
                                        #   in Loop: Header=BB0_25 Depth=2
	addq	$1, %r13
	movq	24(%rsp), %rax                  # 8-byte Reload
	addq	$32, %rax
	addq	$-32, 56(%rsp)                  # 8-byte Folded Spill
	addq	$256, %rdi                      # imm = 0x100
	addq	$256, 48(%rsp)                  # 8-byte Folded Spill
                                        # imm = 0x100
	cmpq	$72, %r13
	je	.LBB0_36
.LBB0_25:                               # %for.cond122.preheader.i
                                        #   Parent Loop BB0_23 Depth=1
                                        # =>  This Loop Header: Depth=2
                                        #       Child Loop BB0_27 Depth 3
                                        #         Child Loop BB0_29 Depth 4
                                        #           Child Loop BB0_30 Depth 5
                                        #             Child Loop BB0_31 Depth 6
	cmpq	$2299, %rax                     # imm = 0x8FB
	movl	$2299, %r12d                    # imm = 0x8FB
	movq	%rax, 24(%rsp)                  # 8-byte Spill
	cmovbq	%rax, %r12
	movq	%r13, %rax
	shlq	$5, %rax
	leaq	31(%rax), %rcx
	cmpq	$2299, %rcx                     # imm = 0x8FB
	movl	$2299, %esi                     # imm = 0x8FB
	cmovaeq	%rsi, %rcx
	cmpq	%rcx, %rax
	ja	.LBB0_35
# %bb.26:                               # %for.body141.i.preheader
                                        #   in Loop: Header=BB0_25 Depth=2
	addq	56(%rsp), %r12                  # 8-byte Folded Reload
	movl	$31, %r8d
	movq	48(%rsp), %r14                  # 8-byte Reload
	xorl	%ebp, %ebp
	jmp	.LBB0_27
	.p2align	4, 0x90
.LBB0_34:                               # %for.inc217.i
                                        #   in Loop: Header=BB0_27 Depth=3
	addq	$1, %rbp
	addq	$32, %r8
	addq	$588800, %r14                   # imm = 0x8FC00
	cmpq	$82, %rbp
	je	.LBB0_35
.LBB0_27:                               # %for.body141.i
                                        #   Parent Loop BB0_23 Depth=1
                                        #     Parent Loop BB0_25 Depth=2
                                        # =>    This Loop Header: Depth=3
                                        #         Child Loop BB0_29 Depth 4
                                        #           Child Loop BB0_30 Depth 5
                                        #             Child Loop BB0_31 Depth 6
	cmpq	$2599, %r8                      # imm = 0xA27
	movl	$2599, %r11d                    # imm = 0xA27
	cmovbq	%r8, %r11
	movq	%rbp, %rsi
	shlq	$5, %rsi
	leaq	31(%rsi), %rax
	cmpq	$2599, %rax                     # imm = 0xA27
	movl	$2599, %ecx                     # imm = 0xA27
	cmovaeq	%rcx, %rax
	cmpq	%rax, %rsi
	ja	.LBB0_34
# %bb.28:                               # %for.body160.i.preheader
                                        #   in Loop: Header=BB0_27 Depth=3
	movq	%rdi, %r9
	movq	(%rsp), %rcx                    # 8-byte Reload
	.p2align	4, 0x90
.LBB0_29:                               # %for.body160.i
                                        #   Parent Loop BB0_23 Depth=1
                                        #     Parent Loop BB0_25 Depth=2
                                        #       Parent Loop BB0_27 Depth=3
                                        # =>      This Loop Header: Depth=4
                                        #           Child Loop BB0_30 Depth 5
                                        #             Child Loop BB0_31 Depth 6
	movq	%r14, %r15
	movq	%rsi, %r10
	.p2align	4, 0x90
.LBB0_30:                               # %for.body179.i
                                        #   Parent Loop BB0_23 Depth=1
                                        #     Parent Loop BB0_25 Depth=2
                                        #       Parent Loop BB0_27 Depth=3
                                        #         Parent Loop BB0_29 Depth=4
                                        # =>        This Loop Header: Depth=5
                                        #             Child Loop BB0_31 Depth 6
	imulq	$20800, %rcx, %rax              # imm = 0x5140
	addq	%rbx, %rax
	movsd	(%rax,%r10,8), %xmm1            # xmm1 = mem[0],zero
	mulsd	%xmm0, %xmm1
	xorl	%eax, %eax
	.p2align	4, 0x90
.LBB0_31:                               # %for.body198.i
                                        #   Parent Loop BB0_23 Depth=1
                                        #     Parent Loop BB0_25 Depth=2
                                        #       Parent Loop BB0_27 Depth=3
                                        #         Parent Loop BB0_29 Depth=4
                                        #           Parent Loop BB0_30 Depth=5
                                        # =>          This Inner Loop Header: Depth=6
	movsd	(%r15,%rax,8), %xmm2            # xmm2 = mem[0],zero
	mulsd	%xmm1, %xmm2
	addsd	(%r9,%rax,8), %xmm2
	movsd	%xmm2, (%r9,%rax,8)
	addq	$1, %rax
	cmpq	%rax, %r12
	jne	.LBB0_31
# %bb.32:                               # %for.inc211.i
                                        #   in Loop: Header=BB0_30 Depth=5
	leaq	1(%r10), %rax
	addq	$18400, %r15                    # imm = 0x47E0
	cmpq	%r11, %r10
	movq	%rax, %r10
	jne	.LBB0_30
# %bb.33:                               # %for.inc214.i
                                        #   in Loop: Header=BB0_29 Depth=4
	leaq	1(%rcx), %rax
	addq	$18400, %r9                     # imm = 0x47E0
	cmpq	%rdx, %rcx
	movq	%rax, %rcx
	jne	.LBB0_29
	jmp	.LBB0_34
.LBB0_37:                               # %kernel_gemm.exit
	xorl	%eax, %eax
	callq	polybench_timer_stop
	xorl	%eax, %eax
	callq	polybench_timer_print
	cmpl	$43, 36(%rsp)                   # 4-byte Folded Reload
	jl	.LBB0_46
# %bb.38:                               # %land.lhs.true
	movq	64(%rsp), %rax                  # 8-byte Reload
	movq	(%rax), %rax
	cmpb	$0, (%rax)
	je	.LBB0_39
.LBB0_46:                               # %if.end
	movq	8(%rsp), %rdi                   # 8-byte Reload
	callq	free
	movq	%rbx, %rdi
	callq	free
	movq	16(%rsp), %rdi                  # 8-byte Reload
	callq	free
	xorl	%eax, %eax
	addq	$88, %rsp
	.cfi_def_cfa_offset 56
	popq	%rbx
	.cfi_def_cfa_offset 48
	popq	%r12
	.cfi_def_cfa_offset 40
	popq	%r13
	.cfi_def_cfa_offset 32
	popq	%r14
	.cfi_def_cfa_offset 24
	popq	%r15
	.cfi_def_cfa_offset 16
	popq	%rbp
	.cfi_def_cfa_offset 8
	retq
.LBB0_39:                               # %if.then
	.cfi_def_cfa_offset 144
	movq	stderr(%rip), %rcx
	movl	$.L.str.1, %edi
	movl	$22, %esi
	movl	$1, %edx
	callq	fwrite
	movq	stderr(%rip), %rdi
	xorl	%ebp, %ebp
	movl	$.L.str.2, %esi
	movl	$.L.str.3, %edx
	xorl	%eax, %eax
	callq	fprintf
	xorl	%r12d, %r12d
	movq	8(%rsp), %r13                   # 8-byte Reload
	xorl	%eax, %eax
.LBB0_40:                               # %for.cond2.preheader.i
                                        # =>This Loop Header: Depth=1
                                        #     Child Loop BB0_41 Depth 2
	movq	%rax, 24(%rsp)                  # 8-byte Spill
	movq	%rbp, (%rsp)                    # 8-byte Spill
	movl	%ebp, %r14d
	xorl	%r15d, %r15d
	movl	$3435973837, %ebp               # imm = 0xCCCCCCCD
.LBB0_41:                               # %for.body4.i
                                        #   Parent Loop BB0_40 Depth=1
                                        # =>  This Inner Loop Header: Depth=2
	movl	%r14d, %eax
	imulq	%rbp, %rax
	shrq	$36, %rax
	leal	(%rax,%rax,4), %eax
	leal	(%r12,%rax,4), %eax
	cmpl	%r15d, %eax
	jne	.LBB0_43
# %bb.42:                               # %if.then.i
                                        #   in Loop: Header=BB0_41 Depth=2
	movq	stderr(%rip), %rsi
	movl	$10, %edi
	callq	fputc
.LBB0_43:                               # %if.end.i
                                        #   in Loop: Header=BB0_41 Depth=2
	movq	stderr(%rip), %rdi
	movsd	(%r13,%r15,8), %xmm0            # xmm0 = mem[0],zero
	movl	$.L.str.5, %esi
	movb	$1, %al
	callq	fprintf
	addq	$1, %r15
	addl	$1, %r14d
	cmpq	$2300, %r15                     # imm = 0x8FC
	jne	.LBB0_41
# %bb.44:                               # %for.inc10.i
                                        #   in Loop: Header=BB0_40 Depth=1
	movq	24(%rsp), %rax                  # 8-byte Reload
	addq	$1, %rax
	addq	$18400, %r13                    # imm = 0x47E0
	addl	$-2000, %r12d                   # imm = 0xF830
	movq	(%rsp), %rbp                    # 8-byte Reload
	addl	$2000, %ebp                     # imm = 0x7D0
	cmpq	$2000, %rax                     # imm = 0x7D0
	jne	.LBB0_40
# %bb.45:                               # %print_array.exit
	movq	stderr(%rip), %rdi
	movl	$.L.str.6, %esi
	movl	$.L.str.3, %edx
	xorl	%eax, %eax
	callq	fprintf
	movq	stderr(%rip), %rcx
	movl	$.L.str.7, %edi
	movl	$22, %esi
	movl	$1, %edx
	callq	fwrite
	jmp	.LBB0_46
.Lfunc_end0:
	.size	main, .Lfunc_end0-main
	.cfi_endproc
                                        # -- End function
	.type	.L.str.1,@object                # @.str.1
	.section	.rodata.str1.1,"aMS",@progbits,1
.L.str.1:
	.asciz	"==BEGIN DUMP_ARRAYS==\n"
	.size	.L.str.1, 23

	.type	.L.str.2,@object                # @.str.2
.L.str.2:
	.asciz	"begin dump: %s"
	.size	.L.str.2, 15

	.type	.L.str.3,@object                # @.str.3
.L.str.3:
	.asciz	"C"
	.size	.L.str.3, 2

	.type	.L.str.5,@object                # @.str.5
.L.str.5:
	.asciz	"%0.2lf "
	.size	.L.str.5, 8

	.type	.L.str.6,@object                # @.str.6
.L.str.6:
	.asciz	"\nend   dump: %s\n"
	.size	.L.str.6, 17

	.type	.L.str.7,@object                # @.str.7
.L.str.7:
	.asciz	"==END   DUMP_ARRAYS==\n"
	.size	.L.str.7, 23

	.ident	"clang version 12.0.0 (https://github.com/wsmoses/MLIR-GPU 1112d5451cea635029a160c950f14a85f31b2258)"
	.section	".note.GNU-stack","",@progbits
	.addrsig
